target datalayout = "e-m:e-p270:32:32-p271:32:32-p272:64:64-i64:64-i128:128-f80:128-n8:16:32:64-S128"
target triple = "x86_64-pc-linux-gnu"

%struct.quicklist = type { ptr, ptr, i64, i64, i64, [0 x %struct.quicklistBookmark] }
%struct.quicklistBookmark = type { ptr, ptr }
%struct.quicklistNode = type { ptr, ptr, ptr, i64, i32 }
%struct.quicklistLZF = type { i64, [0 x i8] }

@.str.1 = private unnamed_addr constant [12 x i8] c"quicklist.c\00", align 1
@.str.2 = private unnamed_addr constant [69 x i8] c"quicklist->head->recompress == 0 && quicklist->tail->recompress == 0\00", align 1

; Function Attrs: nounwind uwtable
define dso_local i32 @__quicklistDecompressNode(ptr noundef %0) #0 {
  %2 = alloca i32, align 4
  %3 = alloca ptr, align 8
  %4 = alloca ptr, align 8
  %5 = alloca ptr, align 8
  %6 = alloca i32, align 4
  store ptr %0, ptr %3, align 8, !tbaa !12
  %7 = load ptr, ptr %3, align 8, !tbaa !12
  %8 = getelementptr inbounds nuw %struct.quicklistNode, ptr %7, i32 0, i32 4
  %9 = load i32, ptr %8, align 8
  %10 = and i32 %9, -1048577
  %11 = or i32 %10, 0
  store i32 %11, ptr %8, align 8
  call void @llvm.lifetime.start.p0(i64 8, ptr %4) #10
  %12 = load ptr, ptr %3, align 8, !tbaa !12
  %13 = getelementptr inbounds nuw %struct.quicklistNode, ptr %12, i32 0, i32 3
  %14 = load i64, ptr %13, align 8, !tbaa !19
  %15 = call noalias ptr @zmalloc(i64 noundef %14) #11
  store ptr %15, ptr %4, align 8, !tbaa !29
  call void @llvm.lifetime.start.p0(i64 8, ptr %5) #10
  %16 = load ptr, ptr %3, align 8, !tbaa !12
  %17 = getelementptr inbounds nuw %struct.quicklistNode, ptr %16, i32 0, i32 2
  %18 = load ptr, ptr %17, align 8, !tbaa !16
  store ptr %18, ptr %5, align 8, !tbaa !27
  %19 = load ptr, ptr %5, align 8, !tbaa !27
  %20 = getelementptr inbounds nuw %struct.quicklistLZF, ptr %19, i32 0, i32 1
  %21 = getelementptr inbounds [0 x i8], ptr %20, i64 0, i64 0
  %22 = load ptr, ptr %5, align 8, !tbaa !27
  %23 = getelementptr inbounds nuw %struct.quicklistLZF, ptr %22, i32 0, i32 0
  %24 = load i64, ptr %23, align 8, !tbaa !5
  %25 = load ptr, ptr %4, align 8, !tbaa !29
  %26 = load ptr, ptr %3, align 8, !tbaa !12
  %27 = getelementptr inbounds nuw %struct.quicklistNode, ptr %26, i32 0, i32 3
  %28 = load i64, ptr %27, align 8, !tbaa !19
  %29 = call i64 @lzf_decompress(ptr noundef %21, i64 noundef %24, ptr noundef %25, i64 noundef %28)
  %30 = icmp eq i64 %29, 0
  br i1 %30, label %31, label %33

31:                                               ; preds = %1
  %32 = load ptr, ptr %4, align 8, !tbaa !29
  call void @zfree(ptr noundef %32)
  store i32 0, ptr %2, align 4
  store i32 1, ptr %6, align 4
  br label %43

33:                                               ; preds = %1
  %34 = load ptr, ptr %5, align 8, !tbaa !27
  call void @zfree(ptr noundef %34)
  %35 = load ptr, ptr %4, align 8, !tbaa !29
  %36 = load ptr, ptr %3, align 8, !tbaa !12
  %37 = getelementptr inbounds nuw %struct.quicklistNode, ptr %36, i32 0, i32 2
  store ptr %35, ptr %37, align 8, !tbaa !16
  %38 = load ptr, ptr %3, align 8, !tbaa !12
  %39 = getelementptr inbounds nuw %struct.quicklistNode, ptr %38, i32 0, i32 4
  %40 = load i32, ptr %39, align 8
  %41 = and i32 %40, -196609
  %42 = or i32 %41, 65536
  store i32 %42, ptr %39, align 8
  store i32 1, ptr %2, align 4
  store i32 1, ptr %6, align 4
  br label %43

43:                                               ; preds = %33, %31
  call void @llvm.lifetime.end.p0(i64 8, ptr %5) #10
  call void @llvm.lifetime.end.p0(i64 8, ptr %4) #10
  %44 = load i32, ptr %2, align 4
  ret i32 %44
}

; Function Attrs: nounwind uwtable
define dso_local void @__quicklistCompress(ptr noundef %0, ptr noundef %1) #0 {
  %3 = alloca ptr, align 8
  %4 = alloca ptr, align 8
  %5 = alloca ptr, align 8
  %6 = alloca ptr, align 8
  %7 = alloca i32, align 4
  %8 = alloca i32, align 4
  %9 = alloca i32, align 4
  store ptr %0, ptr %3, align 8, !tbaa !9
  store ptr %1, ptr %4, align 8, !tbaa !12
  %10 = load ptr, ptr %3, align 8, !tbaa !9
  %11 = getelementptr inbounds nuw %struct.quicklist, ptr %10, i32 0, i32 3
  %12 = load i64, ptr %11, align 8, !tbaa !5
  %13 = icmp eq i64 %12, 0
  br i1 %13, label %14, label %15

14:                                               ; preds = %2
  br label %197

15:                                               ; preds = %2
  %16 = load ptr, ptr %3, align 8, !tbaa !9
  %17 = getelementptr inbounds nuw %struct.quicklist, ptr %16, i32 0, i32 0
  %18 = load ptr, ptr %17, align 8, !tbaa !12
  %19 = getelementptr inbounds nuw %struct.quicklistNode, ptr %18, i32 0, i32 4
  %20 = load i32, ptr %19, align 8
  %21 = lshr i32 %20, 20
  %22 = and i32 %21, 1
  %23 = icmp eq i32 %22, 0
  br i1 %23, label %24, label %33

24:                                               ; preds = %15
  %25 = load ptr, ptr %3, align 8, !tbaa !9
  %26 = getelementptr inbounds nuw %struct.quicklist, ptr %25, i32 0, i32 1
  %27 = load ptr, ptr %26, align 8, !tbaa !12
  %28 = getelementptr inbounds nuw %struct.quicklistNode, ptr %27, i32 0, i32 4
  %29 = load i32, ptr %28, align 8
  %30 = lshr i32 %29, 20
  %31 = and i32 %30, 1
  %32 = icmp eq i32 %31, 0
  br label %33

33:                                               ; preds = %24, %15
  %34 = phi i1 [ false, %15 ], [ %32, %24 ]
  %35 = xor i1 %34, true
  %36 = xor i1 %35, true
  %37 = zext i1 %36 to i32
  %38 = sext i32 %37 to i64
  %39 = call i64 @llvm.expect.i64(i64 %38, i64 1)
  %40 = icmp ne i64 %39, 0
  br i1 %40, label %41, label %42

41:                                               ; preds = %33
  br label %44

42:                                               ; preds = %33
  call void @_serverAssert(ptr noundef @.str.2, ptr noundef @.str.1, i32 noundef 312)
  call void @abort() #12
  unreachable

43:                                               ; No predecessors!
  br label %44

44:                                               ; preds = %43, %41
  %45 = load ptr, ptr %3, align 8, !tbaa !9
  %46 = getelementptr inbounds nuw %struct.quicklist, ptr %45, i32 0, i32 4
  %47 = load i64, ptr %46, align 8
  %48 = lshr i64 %47, 16
  %49 = and i64 %48, 65535
  %50 = trunc i64 %49 to i32
  %51 = icmp ne i32 %50, 0
  br i1 %51, label %52, label %65

52:                                               ; preds = %44
  %53 = load ptr, ptr %3, align 8, !tbaa !9
  %54 = getelementptr inbounds nuw %struct.quicklist, ptr %53, i32 0, i32 3
  %55 = load i64, ptr %54, align 8, !tbaa !5
  %56 = load ptr, ptr %3, align 8, !tbaa !9
  %57 = getelementptr inbounds nuw %struct.quicklist, ptr %56, i32 0, i32 4
  %58 = load i64, ptr %57, align 8
  %59 = lshr i64 %58, 16
  %60 = and i64 %59, 65535
  %61 = trunc i64 %60 to i32
  %62 = mul nsw i32 %61, 2
  %63 = zext i32 %62 to i64
  %64 = icmp ult i64 %55, %63
  br i1 %64, label %65, label %66

65:                                               ; preds = %52, %44
  br label %197

66:                                               ; preds = %52
  call void @llvm.lifetime.start.p0(i64 8, ptr %5) #10
  %67 = load ptr, ptr %3, align 8, !tbaa !9
  %68 = getelementptr inbounds nuw %struct.quicklist, ptr %67, i32 0, i32 0
  %69 = load ptr, ptr %68, align 8, !tbaa !12
  store ptr %69, ptr %5, align 8, !tbaa !12
  call void @llvm.lifetime.start.p0(i64 8, ptr %6) #10
  %70 = load ptr, ptr %3, align 8, !tbaa !9
  %71 = getelementptr inbounds nuw %struct.quicklist, ptr %70, i32 0, i32 1
  %72 = load ptr, ptr %71, align 8, !tbaa !12
  store ptr %72, ptr %6, align 8, !tbaa !12
  call void @llvm.lifetime.start.p0(i64 4, ptr %7) #10
  store i32 0, ptr %7, align 4, !tbaa !14
  call void @llvm.lifetime.start.p0(i64 4, ptr %8) #10
  store i32 0, ptr %8, align 4, !tbaa !14
  br label %73

73:                                               ; preds = %135, %66
  %74 = load i32, ptr %7, align 4, !tbaa !14
  %75 = add nsw i32 %74, 1
  store i32 %75, ptr %7, align 4, !tbaa !14
  %76 = load ptr, ptr %3, align 8, !tbaa !9
  %77 = getelementptr inbounds nuw %struct.quicklist, ptr %76, i32 0, i32 4
  %78 = load i64, ptr %77, align 8
  %79 = lshr i64 %78, 16
  %80 = and i64 %79, 65535
  %81 = trunc i64 %80 to i32
  %82 = icmp slt i32 %74, %81
  br i1 %82, label %83, label %142

83:                                               ; preds = %73
  br label %84

84:                                               ; preds = %83
  %85 = load ptr, ptr %5, align 8, !tbaa !12
  %86 = icmp ne ptr %85, null
  br i1 %86, label %87, label %97

87:                                               ; preds = %84
  %88 = load ptr, ptr %5, align 8, !tbaa !12
  %89 = getelementptr inbounds nuw %struct.quicklistNode, ptr %88, i32 0, i32 4
  %90 = load i32, ptr %89, align 8
  %91 = lshr i32 %90, 16
  %92 = and i32 %91, 3
  %93 = icmp eq i32 %92, 2
  br i1 %93, label %94, label %97

94:                                               ; preds = %87
  %95 = load ptr, ptr %5, align 8, !tbaa !12
  %96 = call i32 @__quicklistDecompressNode(ptr noundef %95)
  br label %97

97:                                               ; preds = %94, %87, %84
  br label %98

98:                                               ; preds = %97
  br label %99

99:                                               ; preds = %98
  br label %100

100:                                              ; preds = %99
  %101 = load ptr, ptr %6, align 8, !tbaa !12
  %102 = icmp ne ptr %101, null
  br i1 %102, label %103, label %113

103:                                              ; preds = %100
  %104 = load ptr, ptr %6, align 8, !tbaa !12
  %105 = getelementptr inbounds nuw %struct.quicklistNode, ptr %104, i32 0, i32 4
  %106 = load i32, ptr %105, align 8
  %107 = lshr i32 %106, 16
  %108 = and i32 %107, 3
  %109 = icmp eq i32 %108, 2
  br i1 %109, label %110, label %113

110:                                              ; preds = %103
  %111 = load ptr, ptr %6, align 8, !tbaa !12
  %112 = call i32 @__quicklistDecompressNode(ptr noundef %111)
  br label %113

113:                                              ; preds = %110, %103, %100
  br label %114

114:                                              ; preds = %113
  br label %115

115:                                              ; preds = %114
  %116 = load ptr, ptr %5, align 8, !tbaa !12
  %117 = load ptr, ptr %4, align 8, !tbaa !12
  %118 = icmp eq ptr %116, %117
  br i1 %118, label %123, label %119

119:                                              ; preds = %115
  %120 = load ptr, ptr %6, align 8, !tbaa !12
  %121 = load ptr, ptr %4, align 8, !tbaa !12
  %122 = icmp eq ptr %120, %121
  br i1 %122, label %123, label %124

123:                                              ; preds = %119, %115
  store i32 1, ptr %8, align 4, !tbaa !14
  br label %124

124:                                              ; preds = %123, %119
  %125 = load ptr, ptr %5, align 8, !tbaa !12
  %126 = load ptr, ptr %6, align 8, !tbaa !12
  %127 = icmp eq ptr %125, %126
  br i1 %127, label %134, label %128

128:                                              ; preds = %124
  %129 = load ptr, ptr %5, align 8, !tbaa !12
  %130 = getelementptr inbounds nuw %struct.quicklistNode, ptr %129, i32 0, i32 1
  %131 = load ptr, ptr %130, align 8, !tbaa !21
  %132 = load ptr, ptr %6, align 8, !tbaa !12
  %133 = icmp eq ptr %131, %132
  br i1 %133, label %134, label %135

134:                                              ; preds = %128, %124
  store i32 1, ptr %9, align 4
  br label %195

135:                                              ; preds = %128
  %136 = load ptr, ptr %5, align 8, !tbaa !12
  %137 = getelementptr inbounds nuw %struct.quicklistNode, ptr %136, i32 0, i32 1
  %138 = load ptr, ptr %137, align 8, !tbaa !21
  store ptr %138, ptr %5, align 8, !tbaa !12
  %139 = load ptr, ptr %6, align 8, !tbaa !12
  %140 = getelementptr inbounds nuw %struct.quicklistNode, ptr %139, i32 0, i32 0
  %141 = load ptr, ptr %140, align 8, !tbaa !20
  store ptr %141, ptr %6, align 8, !tbaa !12
  br label %73, !llvm.loop !30

142:                                              ; preds = %73
  %143 = load i32, ptr %8, align 4, !tbaa !14
  %144 = icmp ne i32 %143, 0
  br i1 %144, label %162, label %145

145:                                              ; preds = %142
  br label %146

146:                                              ; preds = %145
  %147 = load ptr, ptr %4, align 8, !tbaa !12
  %148 = icmp ne ptr %147, null
  br i1 %148, label %149, label %159

149:                                              ; preds = %146
  %150 = load ptr, ptr %4, align 8, !tbaa !12
  %151 = getelementptr inbounds nuw %struct.quicklistNode, ptr %150, i32 0, i32 4
  %152 = load i32, ptr %151, align 8
  %153 = lshr i32 %152, 16
  %154 = and i32 %153, 3
  %155 = icmp eq i32 %154, 1
  br i1 %155, label %156, label %159

156:                                              ; preds = %149
  %157 = load ptr, ptr %4, align 8, !tbaa !12
  %158 = call i32 @__quicklistCompressNode(ptr noundef %157)
  br label %159

159:                                              ; preds = %156, %149, %146
  br label %160

160:                                              ; preds = %159
  br label %161

161:                                              ; preds = %160
  br label %162

162:                                              ; preds = %161, %142
  br label %163

163:                                              ; preds = %162
  %164 = load ptr, ptr %5, align 8, !tbaa !12
  %165 = icmp ne ptr %164, null
  br i1 %165, label %166, label %176

166:                                              ; preds = %163
  %167 = load ptr, ptr %5, align 8, !tbaa !12
  %168 = getelementptr inbounds nuw %struct.quicklistNode, ptr %167, i32 0, i32 4
  %169 = load i32, ptr %168, align 8
  %170 = lshr i32 %169, 16
  %171 = and i32 %170, 3
  %172 = icmp eq i32 %171, 1
  br i1 %172, label %173, label %176

173:                                              ; preds = %166
  %174 = load ptr, ptr %5, align 8, !tbaa !12
  %175 = call i32 @__quicklistCompressNode(ptr noundef %174)
  br label %176

176:                                              ; preds = %173, %166, %163
  br label %177

177:                                              ; preds = %176
  br label %178

178:                                              ; preds = %177
  br label %179

179:                                              ; preds = %178
  %180 = load ptr, ptr %6, align 8, !tbaa !12
  %181 = icmp ne ptr %180, null
  br i1 %181, label %182, label %192

182:                                              ; preds = %179
  %183 = load ptr, ptr %6, align 8, !tbaa !12
  %184 = getelementptr inbounds nuw %struct.quicklistNode, ptr %183, i32 0, i32 4
  %185 = load i32, ptr %184, align 8
  %186 = lshr i32 %185, 16
  %187 = and i32 %186, 3
  %188 = icmp eq i32 %187, 1
  br i1 %188, label %189, label %192

189:                                              ; preds = %182
  %190 = load ptr, ptr %6, align 8, !tbaa !12
  %191 = call i32 @__quicklistCompressNode(ptr noundef %190)
  br label %192

192:                                              ; preds = %189, %182, %179
  br label %193

193:                                              ; preds = %192
  br label %194

194:                                              ; preds = %193
  store i32 0, ptr %9, align 4
  br label %195

195:                                              ; preds = %194, %134
  call void @llvm.lifetime.end.p0(i64 4, ptr %8) #10
  call void @llvm.lifetime.end.p0(i64 4, ptr %7) #10
  call void @llvm.lifetime.end.p0(i64 8, ptr %6) #10
  call void @llvm.lifetime.end.p0(i64 8, ptr %5) #10
  %196 = load i32, ptr %9, align 4
  switch i32 %196, label %198 [
    i32 0, label %197
    i32 1, label %197
  ]

197:                                              ; preds = %14, %65, %195, %195
  ret void

198:                                              ; preds = %195
  unreachable
}