; Function Attrs: nounwind uwtable
define dso_local void @__quicklistCompress(ptr noundef readonly captures(none) %0, ptr noundef captures(address) %1) local_unnamed_addr #1 {
  %3 = getelementptr inbounds nuw i8, ptr %0, i64 24
  %4 = load i64, ptr %3, align 8, !tbaa !5
  %5 = icmp eq i64 %4, 0
  br i1 %5, label %.loopexit, label %6

6:                                                ; preds = %2
  %7 = load ptr, ptr %0, align 8, !tbaa !16
  %8 = getelementptr inbounds nuw i8, ptr %7, i64 32
  %9 = load i32, ptr %8, align 8
  %10 = and i32 %9, 1048576
  %11 = icmp eq i32 %10, 0
  br i1 %11, label %12, label %.critedge, !prof !26

12:                                               ; preds = %6
  %13 = getelementptr inbounds nuw i8, ptr %0, i64 8
  %14 = load ptr, ptr %13, align 8, !tbaa !16
  %15 = getelementptr inbounds nuw i8, ptr %14, i64 32
  %16 = load i32, ptr %15, align 8
  %17 = and i32 %16, 1048576
  %18 = icmp eq i32 %17, 0
  br i1 %18, label %19, label %.critedge, !prof !26

.critedge:                                        ; preds = %6, %12
  tail call void @_serverAssert(ptr noundef nonnull @.str.2, ptr noundef nonnull @.str.1, i32 noundef 312) #23
  tail call void @abort() #24
  unreachable

19:                                               ; preds = %12
  %20 = getelementptr inbounds nuw i8, ptr %0, i64 32
  %21 = load i64, ptr %20, align 8
  %22 = and i64 %21, 4294901760
  %.not = icmp eq i64 %22, 0
  br i1 %.not, label %.loopexit, label %23

23:                                               ; preds = %19
  %24 = lshr i64 %21, 15
  %25 = and i64 %24, 131070
  %26 = icmp ult i64 %4, %25
  br i1 %26, label %.loopexit, label %.preheader

.preheader:                                       ; preds = %23, %78
  %.038 = phi ptr [ %82, %78 ], [ %7, %23 ]
  %.037.in = phi ptr [ %.037, %78 ], [ %13, %23 ]
  %.036 = phi i32 [ %27, %78 ], [ 0, %23 ]
  %.0 = phi i32 [ %.1, %78 ], [ 0, %23 ]
  %.037 = load ptr, ptr %.037.in, align 8, !tbaa !16
  %27 = add nuw nsw i32 %.036, 1
  %28 = load i64, ptr %20, align 8
  %29 = trunc i64 %28 to i32
  %30 = lshr i32 %29, 16
  %31 = icmp samesign ult i32 %.036, %30
  br i1 %31, label %32, label %84

32:                                               ; preds = %.preheader
  %.not45 = icmp eq ptr %.038, null
  br i1 %.not45, label %__quicklistDecompressNode.exit, label %33

33:                                               ; preds = %32
  %34 = getelementptr inbounds nuw i8, ptr %.038, i64 32
  %35 = load i32, ptr %34, align 8
  %36 = and i32 %35, 196608
  %37 = icmp eq i32 %36, 131072
  br i1 %37, label %38, label %__quicklistDecompressNode.exit

38:                                               ; preds = %33
  %39 = and i32 %35, -1114113
  store i32 %39, ptr %34, align 8
  %40 = getelementptr inbounds nuw i8, ptr %.038, i64 24
  %41 = load i64, ptr %40, align 8, !tbaa !15
  %42 = tail call noalias ptr @zmalloc(i64 noundef %41) #22
  %43 = getelementptr inbounds nuw i8, ptr %.038, i64 16
  %44 = load ptr, ptr %43, align 8, !tbaa !9
  %45 = getelementptr inbounds nuw i8, ptr %44, i64 8
  %46 = load i64, ptr %44, align 8, !tbaa !5
  %47 = load i64, ptr %40, align 8, !tbaa !15
  %48 = tail call i64 @lzf_decompress(ptr noundef nonnull %45, i64 noundef %46, ptr noundef %42, i64 noundef %47) #23
  %49 = icmp eq i64 %48, 0
  br i1 %49, label %50, label %51

50:                                               ; preds = %38
  tail call void @zfree(ptr noundef %42) #23
  br label %__quicklistDecompressNode.exit

51:                                               ; preds = %38
  tail call void @zfree(ptr noundef nonnull %44) #23
  store ptr %42, ptr %43, align 8, !tbaa !9
  %52 = load i32, ptr %34, align 8
  %53 = and i32 %52, -196609
  %54 = or disjoint i32 %53, 65536
  store i32 %54, ptr %34, align 8
  br label %__quicklistDecompressNode.exit

__quicklistDecompressNode.exit:                   ; preds = %51, %50, %32, %33
  %.not46 = icmp eq ptr %.037, null
  br i1 %.not46, label %__quicklistDecompressNode.exit49, label %55

55:                                               ; preds = %__quicklistDecompressNode.exit
  %56 = getelementptr inbounds nuw i8, ptr %.037, i64 32
  %57 = load i32, ptr %56, align 8
  %58 = and i32 %57, 196608
  %59 = icmp eq i32 %58, 131072
  br i1 %59, label %60, label %__quicklistDecompressNode.exit49

60:                                               ; preds = %55
  %61 = and i32 %57, -1114113
  store i32 %61, ptr %56, align 8
  %62 = getelementptr inbounds nuw i8, ptr %.037, i64 24
  %63 = load i64, ptr %62, align 8, !tbaa !15
  %64 = tail call noalias ptr @zmalloc(i64 noundef %63) #22
  %65 = getelementptr inbounds nuw i8, ptr %.037, i64 16
  %66 = load ptr, ptr %65, align 8, !tbaa !9
  %67 = getelementptr inbounds nuw i8, ptr %66, i64 8
  %68 = load i64, ptr %66, align 8, !tbaa !5
  %69 = load i64, ptr %62, align 8, !tbaa !15
  %70 = tail call i64 @lzf_decompress(ptr noundef nonnull %67, i64 noundef %68, ptr noundef %64, i64 noundef %69) #23
  %71 = icmp eq i64 %70, 0
  br i1 %71, label %72, label %73

72:                                               ; preds = %60
  tail call void @zfree(ptr noundef %64) #23
  br label %__quicklistDecompressNode.exit49

73:                                               ; preds = %60
  tail call void @zfree(ptr noundef nonnull %66) #23
  store ptr %64, ptr %65, align 8, !tbaa !9
  %74 = load i32, ptr %56, align 8
  %75 = and i32 %74, -196609
  %76 = or disjoint i32 %75, 65536
  store i32 %76, ptr %56, align 8
  br label %__quicklistDecompressNode.exit49

__quicklistDecompressNode.exit49:                 ; preds = %73, %72, %55, %__quicklistDecompressNode.exit
  %77 = icmp eq ptr %.038, %.037
  br i1 %77, label %.loopexit, label %78

78:                                               ; preds = %__quicklistDecompressNode.exit49
  %79 = icmp eq ptr %.038, %1
  %80 = icmp eq ptr %.037, %1
  %or.cond47 = select i1 %79, i1 true, i1 %80
  %.1 = select i1 %or.cond47, i32 1, i32 %.0
  %81 = getelementptr inbounds nuw i8, ptr %.038, i64 8
  %82 = load ptr, ptr %81, align 8, !tbaa !17
  %83 = icmp eq ptr %82, %.037
  br i1 %83, label %.loopexit, label %.preheader, !llvm.loop !27

84:                                               ; preds = %.preheader
  %85 = icmp eq i32 %.0, 0
  %86 = icmp ne ptr %1, null
  %or.cond = and i1 %86, %85
  br i1 %or.cond, label %87, label %94

87:                                               ; preds = %84
  %88 = getelementptr inbounds nuw i8, ptr %1, i64 32
  %89 = load i32, ptr %88, align 8
  %90 = and i32 %89, 196608
  %91 = icmp eq i32 %90, 65536
  br i1 %91, label %92, label %94

92:                                               ; preds = %87
  %93 = tail call i32 @__quicklistCompressNode(ptr noundef nonnull %1)
  br label %94

94:                                               ; preds = %84, %92, %87
  %.not43 = icmp eq ptr %.038, null
  br i1 %.not43, label %102, label %95

95:                                               ; preds = %94
  %96 = getelementptr inbounds nuw i8, ptr %.038, i64 32
  %97 = load i32, ptr %96, align 8
  %98 = and i32 %97, 196608
  %99 = icmp eq i32 %98, 65536
  br i1 %99, label %100, label %102

100:                                              ; preds = %95
  %101 = tail call i32 @__quicklistCompressNode(ptr noundef nonnull %.038)
  br label %102

102:                                              ; preds = %94, %95, %100
  %.not44 = icmp eq ptr %.037, null
  br i1 %.not44, label %.loopexit, label %103

103:                                              ; preds = %102
  %104 = getelementptr inbounds nuw i8, ptr %.037, i64 32
  %105 = load i32, ptr %104, align 8
  %106 = and i32 %105, 196608
  %107 = icmp eq i32 %106, 65536
  br i1 %107, label %108, label %.loopexit

108:                                              ; preds = %103
  %109 = tail call i32 @__quicklistCompressNode(ptr noundef nonnull %.037)
  br label %.loopexit

.loopexit:                                        ; preds = %78, %__quicklistDecompressNode.exit49, %108, %103, %102, %19, %23, %2
  ret void
}